; ModuleID = 'source-C-CXX/60/140.c'
source_filename = "source-C-CXX/60/140.c"
target datalayout = "e-m:e-p270:32:32-p271:32:32-p272:64:64-i64:64-f80:128-n8:16:32:64-S128"
target triple = "x86_64-pc-linux-gnu"

@.str = private unnamed_addr constant [3 x i8] c"%d\00", align 1
@.str.1 = private unnamed_addr constant [4 x i8] c"%d\0A\00", align 1

; Function Attrs: nofree nosync nounwind readnone sspstrong uwtable
define dso_local i32 @ferbo(i32 %0) local_unnamed_addr #0 {
  %2 = add i32 %0, -1
  %3 = icmp ult i32 %2, 2
  br i1 %3, label %15, label %4

4:                                                ; preds = %1, %4
  %5 = phi i32 [ %11, %4 ], [ %2, %1 ]
  %6 = phi i32 [ %9, %4 ], [ %0, %1 ]
  %7 = phi i32 [ %10, %4 ], [ 0, %1 ]
  %8 = tail call i32 @ferbo(i32 %5)
  %9 = add nsw i32 %6, -2
  %10 = add nsw i32 %8, %7
  %11 = add i32 %6, -3
  %12 = icmp ult i32 %11, 2
  br i1 %12, label %13, label %4

13:                                               ; preds = %4
  %14 = add i32 %10, 1
  br label %15

15:                                               ; preds = %13, %1
  %16 = phi i32 [ 1, %1 ], [ %14, %13 ]
  ret i32 %16
}

; Function Attrs: nofree nounwind sspstrong uwtable
define dso_local i32 @main() local_unnamed_addr #1 {
  %1 = alloca [20 x i32], align 16
  %2 = alloca i32, align 4
  %3 = bitcast [20 x i32]* %1 to i8*
  call void @llvm.lifetime.start.p0i8(i64 80, i8* nonnull %3) #4
  %4 = bitcast i32* %2 to i8*
  call void @llvm.lifetime.start.p0i8(i64 4, i8* nonnull %4) #4
  %5 = call i32 (i8*, ...) @__isoc99_scanf(i8* getelementptr inbounds ([3 x i8], [3 x i8]* @.str, i64 0, i64 0), i32* nonnull %2)
  %6 = load i32, i32* %2, align 4, !tbaa !5
  %7 = icmp sgt i32 %6, 0
  br i1 %7, label %10, label %28

8:                                                ; preds = %10
  %9 = icmp sgt i32 %15, 0
  br i1 %9, label %18, label %28

10:                                               ; preds = %0, %10
  %11 = phi i64 [ %14, %10 ], [ 0, %0 ]
  %12 = getelementptr inbounds [20 x i32], [20 x i32]* %1, i64 0, i64 %11
  %13 = call i32 (i8*, ...) @__isoc99_scanf(i8* getelementptr inbounds ([3 x i8], [3 x i8]* @.str, i64 0, i64 0), i32* nonnull %12)
  %14 = add nuw nsw i64 %11, 1
  %15 = load i32, i32* %2, align 4, !tbaa !5
  %16 = sext i32 %15 to i64
  %17 = icmp slt i64 %14, %16
  br i1 %17, label %10, label %8, !llvm.loop !9

18:                                               ; preds = %8, %18
  %19 = phi i64 [ %24, %18 ], [ 0, %8 ]
  %20 = getelementptr inbounds [20 x i32], [20 x i32]* %1, i64 0, i64 %19
  %21 = load i32, i32* %20, align 4, !tbaa !5
  %22 = call i32 @ferbo(i32 %21)
  %23 = call i32 (i8*, ...) @printf(i8* nonnull dereferenceable(1) getelementptr inbounds ([4 x i8], [4 x i8]* @.str.1, i64 0, i64 0), i32 %22)
  %24 = add nuw nsw i64 %19, 1
  %25 = load i32, i32* %2, align 4, !tbaa !5
  %26 = sext i32 %25 to i64
  %27 = icmp slt i64 %24, %26
  br i1 %27, label %18, label %28, !llvm.loop !11

28:                                               ; preds = %18, %0, %8
  call void @llvm.lifetime.end.p0i8(i64 4, i8* nonnull %4) #4
  call void @llvm.lifetime.end.p0i8(i64 80, i8* nonnull %3) #4
  ret i32 0
}

; Function Attrs: argmemonly mustprogress nofree nosync nounwind willreturn
declare void @llvm.lifetime.start.p0i8(i64 immarg, i8* nocapture) #2

; Function Attrs: nofree nounwind
declare noundef i32 @__isoc99_scanf(i8* nocapture noundef readonly, ...) local_unnamed_addr #3

; Function Attrs: nofree nounwind
declare noundef i32 @printf(i8* nocapture noundef readonly, ...) local_unnamed_addr #3

; Function Attrs: argmemonly mustprogress nofree nosync nounwind willreturn
declare void @llvm.lifetime.end.p0i8(i64 immarg, i8* nocapture) #2


!llvm.module.flags = !{!0, !1, !2, !3}
!llvm.ident = !{!4}

!0 = !{i32 1, !"wchar_size", i32 4}
!1 = !{i32 7, !"PIC Level", i32 2}
!2 = !{i32 7, !"PIE Level", i32 2}
!3 = !{i32 7, !"uwtable", i32 1}
!4 = !{!"clang version 13.0.0"}
!5 = !{!6, !6, i64 0}
!6 = !{!"int", !7, i64 0}
!7 = !{!"omnipotent char", !8, i64 0}
!8 = !{!"Simple C/C++ TBAA"}
!9 = distinct !{!9, !10}
!10 = !{!"llvm.loop.mustprogress"}
!11 = distinct !{!11, !10}
